Certificate:
    Data:
        Version: 3 (0x2)
        Serial Number: 61 (0x3d)
        Signature Algorithm: md5WithRSAEncryption
        Issuer: emailAddress=certadmin@credit2go.cn, C=CN, O=Jixin, Inc., OU=Infomation Security, OU=credit2go.cn, CN=CreditGo Trust Network
        Validity
            Not Before: Jun  9 23:13:02 2017 GMT
            Not After : Jun  9 23:13:02 2020 GMT
        Subject: C=CN, ST=SH, L=Shanghai, O=credit2go.cn, OU=CloudService, CN=damailicai_uat/emailAddress=service@credit2go.cn
        Subject Public Key Info:
            Public Key Algorithm: rsaEncryption
                Public-Key: (2048 bit)
                Modulus:
                    00:c2:24:27:41:a4:2d:a6:46:61:57:ea:92:40:72:
                    97:ee:e4:f8:0e:03:04:b1:ba:ec:33:cd:1a:33:93:
                    b9:03:5d:6d:c4:d4:27:b7:37:f4:8f:86:71:3a:3e:
                    b7:7d:74:f3:5a:42:fc:63:5e:ed:5d:5f:ce:ab:92:
                    e5:56:f7:3d:0a:ae:5f:a4:4e:e7:90:df:72:59:e8:
                    31:53:5c:b2:74:1c:f1:05:4d:03:87:1b:0a:cd:9f:
                    9e:de:53:81:ac:9a:b9:b2:e0:da:56:23:36:37:6d:
                    e0:79:9a:9b:30:06:8e:12:39:93:8a:ec:fd:aa:9c:
                    ee:46:8c:db:91:1e:fe:6d:ea:db:88:54:96:eb:1a:
                    b1:5e:4e:cb:13:5f:ed:55:7f:eb:e2:2e:7a:66:10:
                    36:e1:65:db:fe:8d:19:fb:2e:67:2a:82:cd:9f:0e:
                    8e:75:82:32:18:63:8e:8e:e6:c5:6c:bf:b7:74:6d:
                    86:44:63:ba:50:b7:81:bc:9c:8c:4b:71:2b:a9:6e:
                    ec:6c:61:8b:d3:cd:e1:58:e0:20:42:02:d5:10:a6:
                    8e:ec:02:fd:a1:ef:5a:aa:52:6d:fe:b0:ff:2f:d7:
                    e1:a9:09:46:4b:02:18:d3:4d:07:99:d0:0b:fc:84:
                    a8:d5:d7:c8:02:de:52:fc:6b:ae:f2:cc:76:3d:bf:
                    f0:85
                Exponent: 65537 (0x10001)
        X509v3 extensions:
            X509v3 Basic Constraints: 
                CA:FALSE
            Netscape Cert Type: 
                Object Signing
            X509v3 Key Usage: 
                Digital Signature, Non Repudiation, Key Encipherment
            X509v3 Subject Key Identifier: 
                0E:F5:F7:E6:3E:9D:6F:90:AA:E1:98:DB:C3:3A:28:B9:E1:3B:70:3A
            X509v3 Authority Key Identifier: 
                keyid:F1:C7:B5:81:EF:55:36:BD:62:6E:45:6C:15:EB:FF:B5:A3:37:CF:E1
                DirName:/emailAddress=certadmin@credit2go.cn/C=CN/O=Jixin, Inc./OU=Infomation Security/OU=credit2go.cn/CN=CreditGo Trust Network
                serial:9A:B7:C6:45:9A:EA:9A:98

    Signature Algorithm: md5WithRSAEncryption
        5c:47:09:fa:46:40:be:98:18:55:06:1c:d5:f8:59:89:29:68:
        69:68:3c:66:01:7d:dc:0d:72:07:d9:a8:88:59:15:cd:1e:c7:
        b8:6f:3b:4c:e0:ce:42:93:b9:26:b8:e2:6a:97:2d:4e:fe:da:
        21:e8:2b:3a:de:df:d6:9f:a7:32:bc:3f:06:58:84:d3:be:70:
        35:55:65:be:f4:3c:f0:c4:64:22:04:5a:7a:e8:3d:05:05:99:
        1c:f0:83:05:a2:47:e5:31:00:b7:9e:89:cc:b2:c8:ac:ea:4a:
        9a:e2:78:41:b9:55:99:4f:28:b4:00:50:65:86:ec:8d:38:2a:
        65:8f:42:9e:c0:78:62:d6:7f:8a:62:35:b1:3a:d9:c7:23:80:
        81:e6:91:c2:68:47:c2:c0:fb:bb:e2:a8:89:99:60:23:ef:c3:
        b5:bc:14:f5:7a:eb:36:f0:c5:db:5f:2e:28:10:d1:90:d6:46:
        ad:a8:9c:97:fd:36:79:4c:eb:bf:45:50:da:bb:45:68:21:5b:
        26:b6:9d:13:bb:3d:ec:1e:06:60:25:8d:99:39:2e:21:48:3c:
        61:73:b5:40:6a:24:ee:57:8f:a2:90:7b:69:9d:16:ca:fc:bf:
        f2:64:8f:07:f1:50:34:ae:89:fb:ab:cb:eb:14:31:89:5e:9b:
        88:2b:a7:e7:d2:92:fc:91:1f:f5:4b:08:ad:e5:94:a0:f8:05:
        7c:90:f6:17:ce:09:89:fa:fc:b2:4c:c8:f2:7f:77:37:28:a8:
        43:27:ba:25:5d:9a:6a:e2:6e:e5:da:57:a5:16:7e:00:8f:fb:
        e2:d9:98:e8:34:0d:5f:6b:02:35:c7:0d:a0:60:f3:67:2f:8b:
        94:71:9a:c3:9d:35:34:13:b8:cd:bc:d1:d6:62:31:b3:4e:bd:
        13:6d:fe:eb:8d:e5:2e:39:fb:fc:b5:a5:21:7b:c8:35:62:35:
        51:3c:5d:cd:4d:9a:3d:1c:a7:1f:38:ce:03:9f:14:ce:81:af:
        bc:81:95:be:f8:ec:b7:e5:22:0a:d2:9b:da:f0:60:07:aa:31:
        ed:aa:ad:2a:93:3e:76:e8:cd:2c:29:ff:f5:f9:87:a9:73:01:
        97:a0:70:8f:66:5f:b0:47:77:96:c5:4d:e2:bc:32:1c:34:34:
        89:e0:1f:fe:01:51:de:c6:14:4f:a4:99:b4:70:05:60:95:4b:
        a6:4b:71:80:c7:04:91:17:9d:ac:f4:6c:00:6a:04:28:b4:1a:
        1d:a5:dc:1a:02:e3:81:b4:20:99:45:67:a3:30:7b:ff:1c:36:
        e0:af:ab:50:c8:00:14:aa:8d:d3:47:88:b1:7b:d6:be:c5:9c:
        5a:94:da:df:7f:60:c2:cd
-----BEGIN CERTIFICATE-----
MIIF3jCCA8agAwIBAgIBPTANBgkqhkiG9w0BAQQFADCBoDElMCMGCSqGSIb3DQEJ
ARYWY2VydGFkbWluQGNyZWRpdDJnby5jbjELMAkGA1UEBhMCQ04xFDASBgNVBAoT
C0ppeGluLCBJbmMuMRwwGgYDVQQLExNJbmZvbWF0aW9uIFNlY3VyaXR5MRUwEwYD
VQQLEwxjcmVkaXQyZ28uY24xHzAdBgNVBAMTFkNyZWRpdEdvIFRydXN0IE5ldHdv
cmswHhcNMTcwNjA5MjMxMzAyWhcNMjAwNjA5MjMxMzAyWjCBmTELMAkGA1UEBhMC
Q04xCzAJBgNVBAgTAlNIMREwDwYDVQQHEwhTaGFuZ2hhaTEVMBMGA1UEChMMY3Jl
ZGl0MmdvLmNuMRUwEwYDVQQLEwxDbG91ZFNlcnZpY2UxFzAVBgNVBAMUDmRhbWFp
bGljYWlfdWF0MSMwIQYJKoZIhvcNAQkBFhRzZXJ2aWNlQGNyZWRpdDJnby5jbjCC
ASIwDQYJKoZIhvcNAQEBBQADggEPADCCAQoCggEBAMIkJ0GkLaZGYVfqkkByl+7k
+A4DBLG67DPNGjOTuQNdbcTUJ7c39I+GcTo+t31081pC/GNe7V1fzquS5Vb3PQqu
X6RO55DfclnoMVNcsnQc8QVNA4cbCs2fnt5TgayaubLg2lYjNjdt4HmamzAGjhI5
k4rs/aqc7kaM25Ee/m3q24hUlusasV5OyxNf7VV/6+IuemYQNuFl2/6NGfsuZyqC
zZ8OjnWCMhhjjo7mxWy/t3RthkRjulC3gbycjEtxK6lu7Gxhi9PN4VjgIEIC1RCm
juwC/aHvWqpSbf6w/y/X4akJRksCGNNNB5nQC/yEqNXXyALeUvxrrvLMdj2/8IUC
AwEAAaOCASYwggEiMAkGA1UdEwQCMAAwEQYJYIZIAYb4QgEBBAQDAgQQMAsGA1Ud
DwQEAwIF4DAdBgNVHQ4EFgQUDvX35j6db5Cq4ZjbwzooueE7cDowgdUGA1UdIwSB
zTCByoAU8ce1ge9VNr1ibkVsFev/taM3z+GhgaakgaMwgaAxJTAjBgkqhkiG9w0B
CQEWFmNlcnRhZG1pbkBjcmVkaXQyZ28uY24xCzAJBgNVBAYTAkNOMRQwEgYDVQQK
EwtKaXhpbiwgSW5jLjEcMBoGA1UECxMTSW5mb21hdGlvbiBTZWN1cml0eTEVMBMG
A1UECxMMY3JlZGl0MmdvLmNuMR8wHQYDVQQDExZDcmVkaXRHbyBUcnVzdCBOZXR3
b3JrggkAmrfGRZrqmpgwDQYJKoZIhvcNAQEEBQADggIBAFxHCfpGQL6YGFUGHNX4
WYkpaGloPGYBfdwNcgfZqIhZFc0ex7hvO0zgzkKTuSa44mqXLU7+2iHoKzre39af
pzK8PwZYhNO+cDVVZb70PPDEZCIEWnroPQUFmRzwgwWiR+UxALeeicyyyKzqSpri
eEG5VZlPKLQAUGWG7I04KmWPQp7AeGLWf4piNbE62ccjgIHmkcJoR8LA+7viqImZ
YCPvw7W8FPV66zbwxdtfLigQ0ZDWRq2onJf9NnlM679FUNq7RWghWya2nRO7Pewe
BmAljZk5LiFIPGFztUBqJO5Xj6KQe2mdFsr8v/JkjwfxUDSuifury+sUMYlem4gr
p+fSkvyRH/VLCK3llKD4BXyQ9hfOCYn6/LJMyPJ/dzcoqEMnuiVdmmribuXaV6UW
fgCP++LZmOg0DV9rAjXHDaBg82cvi5RxmsOdNTQTuM280dZiMbNOvRNt/uuN5S45
+/y1pSF7yDViNVE8Xc1Nmj0cpx84zgOfFM6Br7yBlb747LflIgrSm9rwYAeqMe2q
rSqTPnbozSwp//X5h6lzAZegcI9mX7BHd5bFTeK8Mhw0NIngH/4BUd7GFE+kmbRw
BWCVS6ZLcYDHBJEXnaz0bABqBCi0Gh2l3BoC44G0IJlFZ6Mwe/8cNuCvq1DIABSq
jdNHiLF71r7FnFqU2t9/YMLN
-----END CERTIFICATE-----
